target datalayout = "e-m:e-p270:32:32-p271:32:32-p272:64:64-i64:64-i128:128-f80:128-n8:16:32:64-S128"
target triple = "x86_64-pc-linux-gnu"

%struct.StringInfoData = type { ptr, i32, i32, i32 }
%union.anon = type { float }

; Function Attrs: inlinehint nounwind uwtable
define internal void @pq_writeint32(ptr noalias noundef %0, i32 noundef %1) #4 {
  %3 = alloca ptr, align 8
  %4 = alloca i32, align 4
  %5 = alloca i32, align 4
  store ptr %0, ptr %3, align 8
  store i32 %1, ptr %4, align 4
  call void @llvm.lifetime.start.p0(i64 4, ptr %5) #8
  %6 = load i32, ptr %4, align 4
  %7 = call i32 @llvm.bswap.i32(i32 %6)
  store i32 %7, ptr %5, align 4
  %8 = load ptr, ptr %3, align 8
  %9 = getelementptr inbounds nuw %struct.StringInfoData, ptr %8, i32 0, i32 0
  %10 = load ptr, ptr %9, align 8
  %11 = load ptr, ptr %3, align 8
  %12 = getelementptr inbounds nuw %struct.StringInfoData, ptr %11, i32 0, i32 1
  %13 = load i32, ptr %12, align 8
  %14 = sext i32 %13 to i64
  %15 = getelementptr inbounds i8, ptr %10, i64 %14
  call void @llvm.memcpy.p0.p0.i64(ptr align 1 %15, ptr align 4 %5, i64 4, i1 false)
  %16 = load ptr, ptr %3, align 8
  %17 = getelementptr inbounds nuw %struct.StringInfoData, ptr %16, i32 0, i32 1
  %18 = load i32, ptr %17, align 8
  %19 = sext i32 %18 to i64
  %20 = add i64 %19, 4
  %21 = trunc i64 %20 to i32
  store i32 %21, ptr %17, align 8
  call void @llvm.lifetime.end.p0(i64 4, ptr %5) #8
  ret void
}

; Function Attrs: inlinehint nounwind uwtable
define internal void @pq_sendint32(ptr noundef %0, i32 noundef %1) #4 {
  %3 = alloca ptr, align 8
  %4 = alloca i32, align 4
  store ptr %0, ptr %3, align 8
  store i32 %1, ptr %4, align 4
  %5 = load ptr, ptr %3, align 8
  call void @enlargeStringInfo(ptr noundef %5, i32 noundef 4)
  %6 = load ptr, ptr %3, align 8
  %7 = load i32, ptr %4, align 4
  call void @pq_writeint32(ptr noundef %6, i32 noundef %7)
  ret void
}

; Function Attrs: nounwind uwtable
define dso_local void @pq_sendfloat4(ptr noundef %0, float noundef %1) #0 {
  %3 = alloca ptr, align 8
  %4 = alloca float, align 4
  %5 = alloca %union.anon, align 4
  store ptr %0, ptr %3, align 8
  store float %1, ptr %4, align 4
  call void @llvm.lifetime.start.p0(i64 4, ptr %5) #8
  %6 = load float, ptr %4, align 4
  store float %6, ptr %5, align 4
  %7 = load ptr, ptr %3, align 8
  %8 = load i32, ptr %5, align 4
  call void @pq_sendint32(ptr noundef %7, i32 noundef %8)
  call void @llvm.lifetime.end.p0(i64 4, ptr %5) #8
  ret void
}