; Function Attrs: nounwind uwtable
define dso_local void @pq_sendfloat4(ptr noundef %0, float noundef %1) local_unnamed_addr #0 {
  %3 = bitcast float %1 to i32
  tail call void @enlargeStringInfo(ptr noundef %0, i32 noundef 4) #9
  tail call void @llvm.experimental.noalias.scope.decl(metadata !12)
  %4 = tail call i32 @llvm.bswap.i32(i32 %3)
  %5 = load ptr, ptr %0, align 8, !alias.scope !12
  %6 = getelementptr inbounds nuw i8, ptr %0, i64 8
  %7 = load i32, ptr %6, align 8, !alias.scope !12
  %8 = sext i32 %7 to i64
  %9 = getelementptr inbounds i8, ptr %5, i64 %8
  store i32 %4, ptr %9, align 1, !noalias !12
  %10 = add i32 %7, 4
  store i32 %10, ptr %6, align 8, !alias.scope !12
  ret void
}